target datalayout = "e-m:e-p270:32:32-p271:32:32-p272:64:64-i64:64-i128:128-f80:128-n8:16:32:64-S128"
target triple = "x86_64-pc-linux-gnu"

@.str = private unnamed_addr constant [41 x i8] c"../openssl/test/evp_pkey_provided_test.c\00", align 1
@.str.66 = private unnamed_addr constant [2 x i8] c"0\00", align 1
@.str.286 = private unnamed_addr constant [46 x i8] c"pctx = EVP_PKEY_CTX_new_id(EVP_PKEY_EC, NULL)\00", align 1
@.str.287 = private unnamed_addr constant [29 x i8] c"EVP_PKEY_paramgen_init(pctx)\00", align 1
@.str.288 = private unnamed_addr constant [67 x i8] c"EVP_PKEY_CTX_set_ec_paramgen_curve_nid(pctx, NID_X9_62_prime256v1)\00", align 1
@.str.289 = private unnamed_addr constant [32 x i8] c"EVP_PKEY_paramgen(pctx, &param)\00", align 1
@.str.290 = private unnamed_addr constant [6 x i8] c"param\00", align 1
@.str.291 = private unnamed_addr constant [52 x i8] c"ctx = EVP_PKEY_CTX_new_from_pkey(NULL, param, NULL)\00", align 1
@.str.292 = private unnamed_addr constant [29 x i8] c"kctx = EVP_PKEY_CTX_dup(ctx)\00", align 1
@.str.293 = private unnamed_addr constant [27 x i8] c"EVP_PKEY_keygen_init(kctx)\00", align 1
@.str.294 = private unnamed_addr constant [29 x i8] c"EVP_PKEY_keygen(kctx, &pkey)\00", align 1

; Function Attrs: nounwind uwtable
define internal i32 @test_ec_dup_no_operation() #0 {
  %1 = alloca i32, align 4
  %2 = alloca ptr, align 8
  %3 = alloca ptr, align 8
  %4 = alloca ptr, align 8
  %5 = alloca ptr, align 8
  %6 = alloca ptr, align 8
  call void @llvm.lifetime.start.p0(i64 4, ptr %1) #6
  store i32 0, ptr %1, align 4, !tbaa !9
  call void @llvm.lifetime.start.p0(i64 8, ptr %2) #6
  store ptr null, ptr %2, align 8, !tbaa !13
  call void @llvm.lifetime.start.p0(i64 8, ptr %3) #6
  store ptr null, ptr %3, align 8, !tbaa !13
  call void @llvm.lifetime.start.p0(i64 8, ptr %4) #6
  store ptr null, ptr %4, align 8, !tbaa !13
  call void @llvm.lifetime.start.p0(i64 8, ptr %5) #6
  store ptr null, ptr %5, align 8, !tbaa !17
  call void @llvm.lifetime.start.p0(i64 8, ptr %6) #6
  store ptr null, ptr %6, align 8, !tbaa !17
  %7 = call ptr @EVP_PKEY_CTX_new_id(i32 noundef 408, ptr noundef null)
  store ptr %7, ptr %2, align 8, !tbaa !13
  %8 = call i32 @test_ptr(ptr noundef @.str, i32 noundef 1786, ptr noundef @.str.286, ptr noundef %7)
  %9 = icmp ne i32 %8, 0
  br i1 %9, label %10, label %29

10:                                               ; preds = %0
  %11 = load ptr, ptr %2, align 8, !tbaa !13
  %12 = call i32 @EVP_PKEY_paramgen_init(ptr noundef %11)
  %13 = call i32 @test_int_gt(ptr noundef @.str, i32 noundef 1787, ptr noundef @.str.287, ptr noundef @.str.66, i32 noundef %12, i32 noundef 0)
  %14 = icmp ne i32 %13, 0
  br i1 %14, label %15, label %29

15:                                               ; preds = %10
  %16 = load ptr, ptr %2, align 8, !tbaa !13
  %17 = call i32 @EVP_PKEY_CTX_set_ec_paramgen_curve_nid(ptr noundef %16, i32 noundef 415)
  %18 = call i32 @test_int_gt(ptr noundef @.str, i32 noundef 1789, ptr noundef @.str.288, ptr noundef @.str.66, i32 noundef %17, i32 noundef 0)
  %19 = icmp ne i32 %18, 0
  br i1 %19, label %20, label %29

20:                                               ; preds = %15
  %21 = load ptr, ptr %2, align 8, !tbaa !13
  %22 = call i32 @EVP_PKEY_paramgen(ptr noundef %21, ptr noundef %5)
  %23 = call i32 @test_int_gt(ptr noundef @.str, i32 noundef 1790, ptr noundef @.str.289, ptr noundef @.str.66, i32 noundef %22, i32 noundef 0)
  %24 = icmp ne i32 %23, 0
  br i1 %24, label %25, label %29

25:                                               ; preds = %20
  %26 = load ptr, ptr %5, align 8, !tbaa !17
  %27 = call i32 @test_ptr(ptr noundef @.str, i32 noundef 1791, ptr noundef @.str.290, ptr noundef %26)
  %28 = icmp ne i32 %27, 0
  br i1 %28, label %30, label %29

29:                                               ; preds = %25, %20, %15, %10, %0
  br label %53

30:                                               ; preds = %25
  %31 = load ptr, ptr %2, align 8, !tbaa !13
  call void @EVP_PKEY_CTX_free(ptr noundef %31)
  store ptr null, ptr %2, align 8, !tbaa !13
  %32 = load ptr, ptr %5, align 8, !tbaa !17
  %33 = call ptr @EVP_PKEY_CTX_new_from_pkey(ptr noundef null, ptr noundef %32, ptr noundef null)
  store ptr %33, ptr %3, align 8, !tbaa !13
  %34 = call i32 @test_ptr(ptr noundef @.str, i32 noundef 1797, ptr noundef @.str.291, ptr noundef %33)
  %35 = icmp ne i32 %34, 0
  br i1 %35, label %36, label %51

36:                                               ; preds = %30
  %37 = load ptr, ptr %3, align 8, !tbaa !13
  %38 = call ptr @EVP_PKEY_CTX_dup(ptr noundef %37)
  store ptr %38, ptr %4, align 8, !tbaa !13
  %39 = call i32 @test_ptr(ptr noundef @.str, i32 noundef 1798, ptr noundef @.str.292, ptr noundef %38)
  %40 = icmp ne i32 %39, 0
  br i1 %40, label %41, label %51

41:                                               ; preds = %36
  %42 = load ptr, ptr %4, align 8, !tbaa !13
  %43 = call i32 @EVP_PKEY_keygen_init(ptr noundef %42)
  %44 = call i32 @test_int_gt(ptr noundef @.str, i32 noundef 1799, ptr noundef @.str.293, ptr noundef @.str.66, i32 noundef %43, i32 noundef 0)
  %45 = icmp ne i32 %44, 0
  br i1 %45, label %46, label %51

46:                                               ; preds = %41
  %47 = load ptr, ptr %4, align 8, !tbaa !13
  %48 = call i32 @EVP_PKEY_keygen(ptr noundef %47, ptr noundef %6)
  %49 = call i32 @test_int_gt(ptr noundef @.str, i32 noundef 1800, ptr noundef @.str.294, ptr noundef @.str.66, i32 noundef %48, i32 noundef 0)
  %50 = icmp ne i32 %49, 0
  br i1 %50, label %52, label %51

51:                                               ; preds = %46, %41, %36, %30
  br label %53

52:                                               ; preds = %46
  store i32 1, ptr %1, align 4, !tbaa !9
  br label %53

53:                                               ; preds = %52, %51, %29
  %54 = load ptr, ptr %6, align 8, !tbaa !17
  call void @EVP_PKEY_free(ptr noundef %54)
  %55 = load ptr, ptr %5, align 8, !tbaa !17
  call void @EVP_PKEY_free(ptr noundef %55)
  %56 = load ptr, ptr %3, align 8, !tbaa !13
  call void @EVP_PKEY_CTX_free(ptr noundef %56)
  %57 = load ptr, ptr %4, align 8, !tbaa !13
  call void @EVP_PKEY_CTX_free(ptr noundef %57)
  %58 = load ptr, ptr %2, align 8, !tbaa !13
  call void @EVP_PKEY_CTX_free(ptr noundef %58)
  %59 = load i32, ptr %1, align 4, !tbaa !9
  call void @llvm.lifetime.end.p0(i64 8, ptr %6) #6
  call void @llvm.lifetime.end.p0(i64 8, ptr %5) #6
  call void @llvm.lifetime.end.p0(i64 8, ptr %4) #6
  call void @llvm.lifetime.end.p0(i64 8, ptr %3) #6
  call void @llvm.lifetime.end.p0(i64 8, ptr %2) #6
  call void @llvm.lifetime.end.p0(i64 4, ptr %1) #6
  ret i32 %59
}