; Function Attrs: nounwind uwtable
define internal range(i32 0, 2) i32 @test_ec_dup_no_operation() #0 {
  %1 = alloca ptr, align 8
  %2 = alloca ptr, align 8
  call void @llvm.lifetime.start.p0(i64 8, ptr nonnull %1) #6
  store ptr null, ptr %1, align 8, !tbaa !15
  call void @llvm.lifetime.start.p0(i64 8, ptr nonnull %2) #6
  store ptr null, ptr %2, align 8, !tbaa !15
  %3 = tail call ptr @EVP_PKEY_CTX_new_id(i32 noundef 408, ptr noundef null) #6
  %4 = tail call i32 @test_ptr(ptr noundef nonnull @.str, i32 noundef 1786, ptr noundef nonnull @.str.286, ptr noundef %3) #6
  %.not = icmp eq i32 %4, 0
  br i1 %.not, label %30, label %5

5:                                                ; preds = %0
  %6 = tail call i32 @EVP_PKEY_paramgen_init(ptr noundef %3) #6
  %7 = tail call i32 @test_int_gt(ptr noundef nonnull @.str, i32 noundef 1787, ptr noundef nonnull @.str.287, ptr noundef nonnull @.str.66, i32 noundef %6, i32 noundef 0) #6
  %.not13 = icmp eq i32 %7, 0
  br i1 %.not13, label %30, label %8

8:                                                ; preds = %5
  %9 = tail call i32 @EVP_PKEY_CTX_set_ec_paramgen_curve_nid(ptr noundef %3, i32 noundef 415) #6
  %10 = tail call i32 @test_int_gt(ptr noundef nonnull @.str, i32 noundef 1789, ptr noundef nonnull @.str.288, ptr noundef nonnull @.str.66, i32 noundef %9, i32 noundef 0) #6
  %.not14 = icmp eq i32 %10, 0
  br i1 %.not14, label %30, label %11

11:                                               ; preds = %8
  %12 = call i32 @EVP_PKEY_paramgen(ptr noundef %3, ptr noundef nonnull %1) #6
  %13 = call i32 @test_int_gt(ptr noundef nonnull @.str, i32 noundef 1790, ptr noundef nonnull @.str.289, ptr noundef nonnull @.str.66, i32 noundef %12, i32 noundef 0) #6
  %.not15 = icmp eq i32 %13, 0
  br i1 %.not15, label %30, label %14

14:                                               ; preds = %11
  %15 = load ptr, ptr %1, align 8, !tbaa !15
  %16 = call i32 @test_ptr(ptr noundef nonnull @.str, i32 noundef 1791, ptr noundef nonnull @.str.290, ptr noundef %15) #6
  %.not16 = icmp eq i32 %16, 0
  br i1 %.not16, label %30, label %17

17:                                               ; preds = %14
  call void @EVP_PKEY_CTX_free(ptr noundef %3) #6
  %18 = load ptr, ptr %1, align 8, !tbaa !15
  %19 = call ptr @EVP_PKEY_CTX_new_from_pkey(ptr noundef null, ptr noundef %18, ptr noundef null) #6
  %20 = call i32 @test_ptr(ptr noundef nonnull @.str, i32 noundef 1797, ptr noundef nonnull @.str.291, ptr noundef %19) #6
  %.not17 = icmp eq i32 %20, 0
  br i1 %.not17, label %30, label %21

21:                                               ; preds = %17
  %22 = call ptr @EVP_PKEY_CTX_dup(ptr noundef %19) #6
  %23 = call i32 @test_ptr(ptr noundef nonnull @.str, i32 noundef 1798, ptr noundef nonnull @.str.292, ptr noundef %22) #6
  %.not18 = icmp eq i32 %23, 0
  br i1 %.not18, label %30, label %24

24:                                               ; preds = %21
  %25 = call i32 @EVP_PKEY_keygen_init(ptr noundef %22) #6
  %26 = call i32 @test_int_gt(ptr noundef nonnull @.str, i32 noundef 1799, ptr noundef nonnull @.str.293, ptr noundef nonnull @.str.66, i32 noundef %25, i32 noundef 0) #6
  %.not19 = icmp eq i32 %26, 0
  br i1 %.not19, label %30, label %27

27:                                               ; preds = %24
  %28 = call i32 @EVP_PKEY_keygen(ptr noundef %22, ptr noundef nonnull %2) #6
  %29 = call i32 @test_int_gt(ptr noundef nonnull @.str, i32 noundef 1800, ptr noundef nonnull @.str.294, ptr noundef nonnull @.str.66, i32 noundef %28, i32 noundef 0) #6
  %.not20 = icmp ne i32 %29, 0
  %spec.select = zext i1 %.not20 to i32
  %.pre = load ptr, ptr %2, align 8, !tbaa !15
  br label %30

30:                                               ; preds = %27, %17, %21, %24, %0, %5, %8, %11, %14
  %31 = phi ptr [ null, %24 ], [ null, %21 ], [ null, %17 ], [ null, %14 ], [ null, %11 ], [ null, %8 ], [ null, %5 ], [ null, %0 ], [ %.pre, %27 ]
  %.012 = phi i32 [ 0, %24 ], [ 0, %21 ], [ 0, %17 ], [ 0, %14 ], [ 0, %11 ], [ 0, %8 ], [ 0, %5 ], [ 0, %0 ], [ %spec.select, %27 ]
  %.011 = phi ptr [ null, %24 ], [ null, %21 ], [ null, %17 ], [ %3, %14 ], [ %3, %11 ], [ %3, %8 ], [ %3, %5 ], [ %3, %0 ], [ null, %27 ]
  %.010 = phi ptr [ %19, %24 ], [ %19, %21 ], [ %19, %17 ], [ null, %14 ], [ null, %11 ], [ null, %8 ], [ null, %5 ], [ null, %0 ], [ %19, %27 ]
  %.0 = phi ptr [ %22, %24 ], [ %22, %21 ], [ null, %17 ], [ null, %14 ], [ null, %11 ], [ null, %8 ], [ null, %5 ], [ null, %0 ], [ %22, %27 ]
  call void @EVP_PKEY_free(ptr noundef %31) #6
  %32 = load ptr, ptr %1, align 8, !tbaa !15
  call void @EVP_PKEY_free(ptr noundef %32) #6
  call void @EVP_PKEY_CTX_free(ptr noundef %.010) #6
  call void @EVP_PKEY_CTX_free(ptr noundef %.0) #6
  call void @EVP_PKEY_CTX_free(ptr noundef %.011) #6
  call void @llvm.lifetime.end.p0(i64 8, ptr nonnull %2) #6
  call void @llvm.lifetime.end.p0(i64 8, ptr nonnull %1) #6
  ret i32 %.012
}